; Function Attrs: nounwind uwtable
define ptr @l_Lean_PrettyPrinter_Parenthesizer_categoryParser_parenthesizer(ptr noundef %0, ptr noundef %1, ptr noundef %2, ptr noundef %3, ptr noundef %4, ptr noundef %5, ptr noundef %6) #0 {
  %8 = tail call ptr @lean_st_ref_get(ptr noundef %5, ptr noundef %6) #6
  %9 = getelementptr inbounds nuw i8, ptr %8, i64 8
  %10 = load ptr, ptr %9, align 8, !tbaa !4
  %11 = ptrtoint ptr %10 to i64
  %12 = and i64 %11, 1
  %.not = icmp eq i64 %12, 0
  br i1 %.not, label %13, label %lean_inc.exit37

13:                                               ; preds = %7
  %.val.i = load i32, ptr %10, align 4, !tbaa !8
  %14 = icmp sgt i32 %.val.i, 0
  br i1 %14, label %15, label %17, !prof !11

15:                                               ; preds = %13
  %16 = add nuw i32 %.val.i, 1
  store i32 %16, ptr %10, align 4, !tbaa !8
  br label %lean_inc.exit37

17:                                               ; preds = %13
  %.not.i47 = icmp eq i32 %.val.i, 0
  br i1 %.not.i47, label %lean_inc.exit37, label %18

18:                                               ; preds = %17
  tail call void @lean_inc_ref_cold(ptr noundef nonnull %10) #6
  br label %lean_inc.exit37

lean_inc.exit37:                                  ; preds = %18, %17, %15, %7
  %19 = getelementptr inbounds nuw i8, ptr %8, i64 16
  %20 = load ptr, ptr %19, align 8, !tbaa !4
  %21 = ptrtoint ptr %20 to i64
  %22 = and i64 %21, 1
  %.not59 = icmp eq i64 %22, 0
  br i1 %.not59, label %23, label %lean_inc.exit36

23:                                               ; preds = %lean_inc.exit37
  %.val.i48 = load i32, ptr %20, align 4, !tbaa !8
  %24 = icmp sgt i32 %.val.i48, 0
  br i1 %24, label %25, label %27, !prof !11

25:                                               ; preds = %23
  %26 = add nuw i32 %.val.i48, 1
  store i32 %26, ptr %20, align 4, !tbaa !8
  br label %lean_inc.exit36

27:                                               ; preds = %23
  %.not.i49 = icmp eq i32 %.val.i48, 0
  br i1 %.not.i49, label %lean_inc.exit36, label %28

28:                                               ; preds = %27
  tail call void @lean_inc_ref_cold(ptr noundef nonnull %20) #6
  br label %lean_inc.exit36

lean_inc.exit36:                                  ; preds = %28, %27, %25, %lean_inc.exit37
  %29 = ptrtoint ptr %8 to i64
  %30 = and i64 %29, 1
  %.not60 = icmp eq i64 %30, 0
  br i1 %.not60, label %31, label %lean_dec.exit40

31:                                               ; preds = %lean_inc.exit36
  %32 = load i32, ptr %8, align 4, !tbaa !8
  %33 = icmp sgt i32 %32, 1
  br i1 %33, label %34, label %36, !prof !11

34:                                               ; preds = %31
  %35 = add nsw i32 %32, -1
  store i32 %35, ptr %8, align 4, !tbaa !8
  br label %lean_dec.exit40

36:                                               ; preds = %31
  %.not.i = icmp eq i32 %32, 0
  br i1 %.not.i, label %lean_dec.exit40, label %37

37:                                               ; preds = %36
  tail call void @lean_dec_ref_cold(ptr noundef nonnull %8) #6
  br label %lean_dec.exit40

lean_dec.exit40:                                  ; preds = %37, %36, %34, %lean_inc.exit36
  %38 = getelementptr inbounds nuw i8, ptr %10, i64 8
  %39 = load ptr, ptr %38, align 8, !tbaa !4
  %40 = ptrtoint ptr %39 to i64
  %41 = and i64 %40, 1
  %.not61 = icmp eq i64 %41, 0
  br i1 %.not61, label %42, label %lean_inc.exit35

42:                                               ; preds = %lean_dec.exit40
  %.val.i51 = load i32, ptr %39, align 4, !tbaa !8
  %43 = icmp sgt i32 %.val.i51, 0
  br i1 %43, label %44, label %46, !prof !11

44:                                               ; preds = %42
  %45 = add nuw i32 %.val.i51, 1
  store i32 %45, ptr %39, align 4, !tbaa !8
  br label %lean_inc.exit35

46:                                               ; preds = %42
  %.not.i52 = icmp eq i32 %.val.i51, 0
  br i1 %.not.i52, label %lean_inc.exit35, label %47

47:                                               ; preds = %46
  tail call void @lean_inc_ref_cold(ptr noundef nonnull %39) #6
  br label %lean_inc.exit35

lean_inc.exit35:                                  ; preds = %47, %46, %44, %lean_dec.exit40
  br i1 %.not, label %48, label %lean_dec.exit39

48:                                               ; preds = %lean_inc.exit35
  %49 = load i32, ptr %10, align 4, !tbaa !8
  %50 = icmp sgt i32 %49, 1
  br i1 %50, label %51, label %53, !prof !11

51:                                               ; preds = %48
  %52 = add nsw i32 %49, -1
  store i32 %52, ptr %10, align 4, !tbaa !8
  br label %lean_dec.exit39

53:                                               ; preds = %48
  %.not.i41 = icmp eq i32 %49, 0
  br i1 %.not.i41, label %lean_dec.exit39, label %54

54:                                               ; preds = %53
  tail call void @lean_dec_ref_cold(ptr noundef nonnull %10) #6
  br label %lean_dec.exit39

lean_dec.exit39:                                  ; preds = %54, %53, %51, %lean_inc.exit35
  %55 = load ptr, ptr @l_Lean_PrettyPrinter_Parenthesizer_categoryParser_parenthesizer___closed__1, align 8, !tbaa !4
  %56 = tail call ptr @l_Lean_KeyedDeclsAttribute_getValues___rarg(ptr noundef %55, ptr noundef %39, ptr noundef %0) #6
  %57 = ptrtoint ptr %56 to i64
  %58 = and i64 %57, 1
  %.not.i54 = icmp eq i64 %58, 0
  br i1 %.not.i54, label %62, label %59

59:                                               ; preds = %lean_dec.exit39
  %60 = lshr i64 %57, 1
  %61 = trunc i64 %60 to i32
  br label %lean_obj_tag.exit

62:                                               ; preds = %lean_dec.exit39
  %63 = getelementptr i8, ptr %56, i64 4
  %.val.i55 = load i32, ptr %63, align 4
  %64 = lshr i32 %.val.i55, 24
  br label %lean_obj_tag.exit

lean_obj_tag.exit:                                ; preds = %59, %62
  %.0.i = phi i32 [ %61, %59 ], [ %64, %62 ]
  %65 = icmp eq i32 %.0.i, 0
  br i1 %65, label %66, label %68

66:                                               ; preds = %lean_obj_tag.exit
  %67 = tail call ptr @l_Lean_PrettyPrinter_Parenthesizer_parenthesizeCategoryCore(ptr noundef %0, ptr noundef %1, ptr noundef %2, ptr noundef %3, ptr noundef %4, ptr noundef %5, ptr noundef %20)
  br label %96

68:                                               ; preds = %lean_obj_tag.exit
  %69 = ptrtoint ptr %0 to i64
  %70 = and i64 %69, 1
  %.not62 = icmp eq i64 %70, 0
  br i1 %.not62, label %71, label %lean_dec.exit38

71:                                               ; preds = %68
  %72 = load i32, ptr %0, align 4, !tbaa !8
  %73 = icmp sgt i32 %72, 1
  br i1 %73, label %74, label %76, !prof !11

74:                                               ; preds = %71
  %75 = add nsw i32 %72, -1
  store i32 %75, ptr %0, align 4, !tbaa !8
  br label %lean_dec.exit38

76:                                               ; preds = %71
  %.not.i43 = icmp eq i32 %72, 0
  br i1 %.not.i43, label %lean_dec.exit38, label %77

77:                                               ; preds = %76
  tail call void @lean_dec_ref_cold(ptr noundef nonnull %0) #6
  br label %lean_dec.exit38

lean_dec.exit38:                                  ; preds = %77, %76, %74, %68
  %78 = getelementptr inbounds nuw i8, ptr %56, i64 8
  %79 = load ptr, ptr %78, align 8, !tbaa !4
  %80 = ptrtoint ptr %79 to i64
  %81 = and i64 %80, 1
  %.not63 = icmp eq i64 %81, 0
  br i1 %.not63, label %82, label %lean_inc.exit

82:                                               ; preds = %lean_dec.exit38
  %.val.i56 = load i32, ptr %79, align 4, !tbaa !8
  %83 = icmp sgt i32 %.val.i56, 0
  br i1 %83, label %84, label %86, !prof !11

84:                                               ; preds = %82
  %85 = add nuw i32 %.val.i56, 1
  store i32 %85, ptr %79, align 4, !tbaa !8
  br label %lean_inc.exit

86:                                               ; preds = %82
  %.not.i57 = icmp eq i32 %.val.i56, 0
  br i1 %.not.i57, label %lean_inc.exit, label %87

87:                                               ; preds = %86
  tail call void @lean_inc_ref_cold(ptr noundef nonnull %79) #6
  br label %lean_inc.exit

lean_inc.exit:                                    ; preds = %87, %86, %84, %lean_dec.exit38
  br i1 %.not.i54, label %88, label %lean_dec.exit

88:                                               ; preds = %lean_inc.exit
  %89 = load i32, ptr %56, align 4, !tbaa !8
  %90 = icmp sgt i32 %89, 1
  br i1 %90, label %91, label %93, !prof !11

91:                                               ; preds = %88
  %92 = add nsw i32 %89, -1
  store i32 %92, ptr %56, align 4, !tbaa !8
  br label %lean_dec.exit

93:                                               ; preds = %88
  %.not.i45 = icmp eq i32 %89, 0
  br i1 %.not.i45, label %lean_dec.exit, label %94

94:                                               ; preds = %93
  tail call void @lean_dec_ref_cold(ptr noundef nonnull %56) #6
  br label %lean_dec.exit

lean_dec.exit:                                    ; preds = %94, %93, %91, %lean_inc.exit
  %95 = tail call ptr @lean_apply_6(ptr noundef %79, ptr noundef %1, ptr noundef %2, ptr noundef %3, ptr noundef %4, ptr noundef %5, ptr noundef %20) #6
  br label %96

96:                                               ; preds = %lean_dec.exit, %66
  %.0 = phi ptr [ %67, %66 ], [ %95, %lean_dec.exit ]
  ret ptr %.0
}